target datalayout = "e-m:e-p270:32:32-p271:32:32-p272:64:64-i64:64-i128:128-f80:128-n8:16:32:64-S128"
target triple = "x86_64-pc-linux-gnu"

%"struct.dmlc::io::InputSplitBase::Chunk" = type { ptr, ptr, %"class.std::vector" }
%"class.std::vector" = type { %"struct.std::_Vector_base" }
%"struct.std::_Vector_base" = type { %"struct.std::_Vector_base<unsigned int, std::allocator<unsigned int>>::_Vector_impl" }
%"struct.std::_Vector_base<unsigned int, std::allocator<unsigned int>>::_Vector_impl" = type { %"struct.std::_Vector_base<unsigned int, std::allocator<unsigned int>>::_Vector_impl_data" }
%"struct.std::_Vector_base<unsigned int, std::allocator<unsigned int>>::_Vector_impl_data" = type { ptr, ptr, ptr }
%"struct.dmlc::InputSplit::Blob" = type { ptr, i64 }

; Function Attrs: mustprogress nounwind uwtable
define noundef zeroext i1 @_ZN4dmlc2io12LineSplitter17ExtractNextRecordEPNS_10InputSplit4BlobEPNS0_14InputSplitBase5ChunkE(ptr noundef nonnull align 8 dereferenceable(200) %0, ptr noundef %1, ptr noundef %2) unnamed_addr #9 align 2 {
  %4 = alloca i1, align 1
  %5 = alloca ptr, align 8
  %6 = alloca ptr, align 8
  %7 = alloca ptr, align 8
  %8 = alloca ptr, align 8
  store ptr %0, ptr %5, align 8, !tbaa !3
  store ptr %1, ptr %6, align 8, !tbaa !27
  store ptr %2, ptr %7, align 8, !tbaa !29
  %9 = load ptr, ptr %7, align 8, !tbaa !29
  %10 = getelementptr inbounds nuw %"struct.dmlc::io::InputSplitBase::Chunk", ptr %9, i32 0, i32 0
  %11 = load ptr, ptr %10, align 8, !tbaa !31
  %12 = load ptr, ptr %7, align 8, !tbaa !29
  %13 = getelementptr inbounds nuw %"struct.dmlc::io::InputSplitBase::Chunk", ptr %12, i32 0, i32 1
  %14 = load ptr, ptr %13, align 8, !tbaa !38
  %15 = icmp eq ptr %11, %14
  br i1 %15, label %16, label %17

16:                                               ; preds = %3
  store i1 false, ptr %4, align 1
  br label %93

17:                                               ; preds = %3
  call void @llvm.lifetime.start.p0(i64 8, ptr %8) #3
  %18 = load ptr, ptr %7, align 8, !tbaa !29
  %19 = getelementptr inbounds nuw %"struct.dmlc::io::InputSplitBase::Chunk", ptr %18, i32 0, i32 0
  %20 = load ptr, ptr %19, align 8, !tbaa !31
  store ptr %20, ptr %8, align 8, !tbaa !18
  br label %21

21:                                               ; preds = %39, %17
  %22 = load ptr, ptr %8, align 8, !tbaa !18
  %23 = load ptr, ptr %7, align 8, !tbaa !29
  %24 = getelementptr inbounds nuw %"struct.dmlc::io::InputSplitBase::Chunk", ptr %23, i32 0, i32 1
  %25 = load ptr, ptr %24, align 8, !tbaa !38
  %26 = icmp ne ptr %22, %25
  br i1 %26, label %27, label %42

27:                                               ; preds = %21
  %28 = load ptr, ptr %8, align 8, !tbaa !18
  %29 = load i8, ptr %28, align 1, !tbaa !10
  %30 = sext i8 %29 to i32
  %31 = icmp eq i32 %30, 10
  br i1 %31, label %37, label %32

32:                                               ; preds = %27
  %33 = load ptr, ptr %8, align 8, !tbaa !18
  %34 = load i8, ptr %33, align 1, !tbaa !10
  %35 = sext i8 %34 to i32
  %36 = icmp eq i32 %35, 13
  br i1 %36, label %37, label %38

37:                                               ; preds = %32, %27
  br label %42

38:                                               ; preds = %32
  br label %39

39:                                               ; preds = %38
  %40 = load ptr, ptr %8, align 8, !tbaa !18
  %41 = getelementptr inbounds nuw i8, ptr %40, i32 1
  store ptr %41, ptr %8, align 8, !tbaa !18
  br label %21, !llvm.loop !39

42:                                               ; preds = %37, %21
  br label %43

43:                                               ; preds = %61, %42
  %44 = load ptr, ptr %8, align 8, !tbaa !18
  %45 = load ptr, ptr %7, align 8, !tbaa !29
  %46 = getelementptr inbounds nuw %"struct.dmlc::io::InputSplitBase::Chunk", ptr %45, i32 0, i32 1
  %47 = load ptr, ptr %46, align 8, !tbaa !38
  %48 = icmp ne ptr %44, %47
  br i1 %48, label %49, label %64

49:                                               ; preds = %43
  %50 = load ptr, ptr %8, align 8, !tbaa !18
  %51 = load i8, ptr %50, align 1, !tbaa !10
  %52 = sext i8 %51 to i32
  %53 = icmp ne i32 %52, 10
  br i1 %53, label %54, label %60

54:                                               ; preds = %49
  %55 = load ptr, ptr %8, align 8, !tbaa !18
  %56 = load i8, ptr %55, align 1, !tbaa !10
  %57 = sext i8 %56 to i32
  %58 = icmp ne i32 %57, 13
  br i1 %58, label %59, label %60

59:                                               ; preds = %54
  br label %64

60:                                               ; preds = %54, %49
  br label %61

61:                                               ; preds = %60
  %62 = load ptr, ptr %8, align 8, !tbaa !18
  %63 = getelementptr inbounds nuw i8, ptr %62, i32 1
  store ptr %63, ptr %8, align 8, !tbaa !18
  br label %43, !llvm.loop !40

64:                                               ; preds = %59, %43
  %65 = load ptr, ptr %8, align 8, !tbaa !18
  %66 = load ptr, ptr %7, align 8, !tbaa !29
  %67 = getelementptr inbounds nuw %"struct.dmlc::io::InputSplitBase::Chunk", ptr %66, i32 0, i32 1
  %68 = load ptr, ptr %67, align 8, !tbaa !38
  %69 = icmp eq ptr %65, %68
  br i1 %69, label %70, label %72

70:                                               ; preds = %64
  %71 = load ptr, ptr %8, align 8, !tbaa !18
  store i8 0, ptr %71, align 1, !tbaa !10
  br label %75

72:                                               ; preds = %64
  %73 = load ptr, ptr %8, align 8, !tbaa !18
  %74 = getelementptr inbounds i8, ptr %73, i64 -1
  store i8 0, ptr %74, align 1, !tbaa !10
  br label %75

75:                                               ; preds = %72, %70
  %76 = load ptr, ptr %7, align 8, !tbaa !29
  %77 = getelementptr inbounds nuw %"struct.dmlc::io::InputSplitBase::Chunk", ptr %76, i32 0, i32 0
  %78 = load ptr, ptr %77, align 8, !tbaa !31
  %79 = load ptr, ptr %6, align 8, !tbaa !27
  %80 = getelementptr inbounds nuw %"struct.dmlc::InputSplit::Blob", ptr %79, i32 0, i32 0
  store ptr %78, ptr %80, align 8, !tbaa !41
  %81 = load ptr, ptr %8, align 8, !tbaa !18
  %82 = load ptr, ptr %7, align 8, !tbaa !29
  %83 = getelementptr inbounds nuw %"struct.dmlc::io::InputSplitBase::Chunk", ptr %82, i32 0, i32 0
  %84 = load ptr, ptr %83, align 8, !tbaa !31
  %85 = ptrtoint ptr %81 to i64
  %86 = ptrtoint ptr %84 to i64
  %87 = sub i64 %85, %86
  %88 = load ptr, ptr %6, align 8, !tbaa !27
  %89 = getelementptr inbounds nuw %"struct.dmlc::InputSplit::Blob", ptr %88, i32 0, i32 1
  store i64 %87, ptr %89, align 8, !tbaa !43
  %90 = load ptr, ptr %8, align 8, !tbaa !18
  %91 = load ptr, ptr %7, align 8, !tbaa !29
  %92 = getelementptr inbounds nuw %"struct.dmlc::io::InputSplitBase::Chunk", ptr %91, i32 0, i32 0
  store ptr %90, ptr %92, align 8, !tbaa !31
  store i1 true, ptr %4, align 1
  call void @llvm.lifetime.end.p0(i64 8, ptr %8) #3
  br label %93

93:                                               ; preds = %75, %16
  %94 = load i1, ptr %4, align 1
  ret i1 %94
}