; Function Attrs: mustprogress nofree norecurse nosync nounwind memory(readwrite, inaccessiblemem: none) uwtable
define noundef zeroext i1 @_ZN4dmlc2io12LineSplitter17ExtractNextRecordEPNS_10InputSplit4BlobEPNS0_14InputSplitBase5ChunkE(ptr nonnull readnone align 8 captures(none) %0, ptr noundef writeonly captures(none) %1, ptr noundef captures(none) %2) unnamed_addr #8 align 2 {
  %4 = load ptr, ptr %2, align 8, !tbaa !19
  %5 = getelementptr inbounds nuw i8, ptr %2, i64 8
  %6 = load ptr, ptr %5, align 8, !tbaa !26
  %7 = ptrtoint ptr %6 to i64
  %8 = icmp ne ptr %4, %6
  br i1 %8, label %.preheader.preheader, label %27

.preheader.preheader:                             ; preds = %3
  %9 = ptrtoint ptr %4 to i64
  %10 = sub i64 %7, %9
  %scevgep = getelementptr i8, ptr %4, i64 %10
  br label %.preheader

.preheader:                                       ; preds = %.preheader.preheader, %12
  %.034 = phi ptr [ %13, %12 ], [ %4, %.preheader.preheader ]
  %11 = load i8, ptr %.034, align 1, !tbaa !3
  switch i8 %11, label %12 [
    i8 10, label %14
    i8 13, label %14
  ]

12:                                               ; preds = %.preheader
  %13 = getelementptr inbounds nuw i8, ptr %.034, i64 1
  %.not = icmp eq ptr %13, %6
  br i1 %.not, label %14, label %.preheader, !llvm.loop !27

14:                                               ; preds = %.preheader, %.preheader, %12
  %.0.lcssa = phi ptr [ %.034, %.preheader ], [ %.034, %.preheader ], [ %scevgep, %12 ]
  %.not2935 = icmp eq ptr %.0.lcssa, %6
  br i1 %.not2935, label %._crit_edge, label %.lr.ph.preheader

.lr.ph.preheader:                                 ; preds = %14
  %.0.lcssa38 = ptrtoint ptr %.0.lcssa to i64
  %15 = sub i64 %7, %.0.lcssa38
  %scevgep39 = getelementptr i8, ptr %.0.lcssa, i64 %15
  br label %.lr.ph

.lr.ph:                                           ; preds = %.lr.ph.preheader, %17
  %.136 = phi ptr [ %18, %17 ], [ %.0.lcssa, %.lr.ph.preheader ]
  %16 = load i8, ptr %.136, align 1, !tbaa !3
  switch i8 %16, label %19 [
    i8 10, label %17
    i8 13, label %17
  ]

17:                                               ; preds = %.lr.ph, %.lr.ph
  %18 = getelementptr inbounds nuw i8, ptr %.136, i64 1
  %.not29 = icmp eq ptr %18, %6
  br i1 %.not29, label %._crit_edge, label %.lr.ph, !llvm.loop !28

._crit_edge:                                      ; preds = %17, %14
  %.1.lcssa = phi ptr [ %.0.lcssa, %14 ], [ %scevgep39, %17 ]
  store i8 0, ptr %.1.lcssa, align 1, !tbaa !3
  br label %21

19:                                               ; preds = %.lr.ph
  %20 = getelementptr inbounds i8, ptr %.136, i64 -1
  store i8 0, ptr %20, align 1, !tbaa !3
  br label %21

21:                                               ; preds = %19, %._crit_edge
  %.133 = phi ptr [ %.136, %19 ], [ %.1.lcssa, %._crit_edge ]
  %22 = load ptr, ptr %2, align 8, !tbaa !19
  store ptr %22, ptr %1, align 8, !tbaa !29
  %23 = ptrtoint ptr %.133 to i64
  %24 = ptrtoint ptr %22 to i64
  %25 = sub i64 %23, %24
  %26 = getelementptr inbounds nuw i8, ptr %1, i64 8
  store i64 %25, ptr %26, align 8, !tbaa !31
  store ptr %.133, ptr %2, align 8, !tbaa !19
  br label %27

27:                                               ; preds = %3, %21
  ret i1 %8
}